target datalayout = "e-m:e-p270:32:32-p271:32:32-p272:64:64-i64:64-i128:128-f80:128-n8:16:32:64-S128"
target triple = "x86_64-pc-linux-gnu"

; Function Attrs: mustprogress nounwind uwtable
define hidden noundef signext i8 @_ZN4ncnn15float32_to_int8Ef(float noundef nofpclass(nan inf) %0) #4 {
  %2 = alloca i8, align 1
  %3 = alloca float, align 4
  %4 = alloca float, align 4
  %5 = alloca i32, align 4
  store float %0, ptr %3, align 4, !tbaa !53
  call void @llvm.lifetime.start.p0(i64 4, ptr %4) #8
  %6 = load float, ptr %3, align 4, !tbaa !53
  %7 = fcmp fast oge float %6, 0.000000e+00
  br i1 %7, label %8, label %11

8:                                                ; preds = %1
  %9 = load float, ptr %3, align 4, !tbaa !53
  %10 = fadd fast float %9, 5.000000e-01
  store float %10, ptr %4, align 4, !tbaa !53
  br label %14

11:                                               ; preds = %1
  %12 = load float, ptr %3, align 4, !tbaa !53
  %13 = fsub fast float %12, 5.000000e-01
  store float %13, ptr %4, align 4, !tbaa !53
  br label %14

14:                                               ; preds = %11, %8
  %15 = load float, ptr %4, align 4, !tbaa !53
  %16 = fcmp fast ogt float %15, 1.270000e+02
  br i1 %16, label %17, label %18

17:                                               ; preds = %14
  store i8 127, ptr %2, align 1
  store i32 1, ptr %5, align 4
  br label %25

18:                                               ; preds = %14
  %19 = load float, ptr %4, align 4, !tbaa !53
  %20 = fcmp fast olt float %19, -1.280000e+02
  br i1 %20, label %21, label %22

21:                                               ; preds = %18
  store i8 -128, ptr %2, align 1
  store i32 1, ptr %5, align 4
  br label %25

22:                                               ; preds = %18
  %23 = load float, ptr %4, align 4, !tbaa !53
  %24 = fptosi float %23 to i8
  store i8 %24, ptr %2, align 1
  store i32 1, ptr %5, align 4
  br label %25

25:                                               ; preds = %22, %21, %17
  call void @llvm.lifetime.end.p0(i64 4, ptr %4) #8
  %26 = load i8, ptr %2, align 1
  ret i8 %26
}