; Function Attrs: mustprogress nofree norecurse nosync nounwind willreturn memory(none) uwtable
define hidden noundef signext i8 @_ZN4ncnn15float32_to_int8Ef(float noundef nofpclass(nan inf) %0) local_unnamed_addr #4 {
  %2 = fcmp fast ult float %0, 0.000000e+00
  %.0.v = select i1 %2, float -5.000000e-01, float 5.000000e-01
  %.0 = fadd fast float %.0.v, %0
  %3 = fcmp fast ogt float %.0, 1.270000e+02
  br i1 %3, label %8, label %4

4:                                                ; preds = %1
  %5 = fcmp fast olt float %.0, -1.280000e+02
  br i1 %5, label %8, label %6

6:                                                ; preds = %4
  %7 = fptosi float %.0 to i8
  br label %8

8:                                                ; preds = %4, %1, %6
  %.06 = phi i8 [ %7, %6 ], [ 127, %1 ], [ -128, %4 ]
  ret i8 %.06
}